; Function Attrs: mustprogress uwtable
define void @_ZNK19OpenColorIO_v2_5dev13ColorSpaceSet18createEditableCopyEv(ptr dead_on_unwind noalias writable sret(%"class.std::shared_ptr") align 8 %0, ptr noundef nonnull readonly align 8 captures(none) dereferenceable(8) %1) local_unnamed_addr #0 align 2 personality ptr @__gxx_personality_v0 {
  tail call void @_ZN19OpenColorIO_v2_5dev13ColorSpaceSet6CreateEv(ptr dead_on_unwind writable sret(%"class.std::shared_ptr") align 8 %0)
  %3 = load ptr, ptr %1, align 8, !tbaa !22
  %4 = load ptr, ptr %0, align 8, !tbaa !3
  %5 = load ptr, ptr %4, align 8, !tbaa !22
  %6 = invoke noundef nonnull align 8 dereferenceable(24) ptr @_ZN19OpenColorIO_v2_5dev13ColorSpaceSet4ImplaSERKS1_(ptr noundef nonnull align 8 dereferenceable(24) %5, ptr noundef nonnull align 8 dereferenceable(24) %3)
          to label %9 unwind label %7

7:                                                ; preds = %2
  %8 = landingpad { ptr, i32 }
          cleanup
  tail call void @_ZNSt12__shared_ptrIN19OpenColorIO_v2_5dev13ColorSpaceSetELN9__gnu_cxx12_Lock_policyE2EED2Ev(ptr noundef nonnull align 8 dereferenceable(16) %0) #23
  resume { ptr, i32 } %8

9:                                                ; preds = %2
  ret void
}